target datalayout = "e-m:e-p270:32:32-p271:32:32-p272:64:64-i64:64-i128:128-f80:128-n8:16:32:64-S128"
target triple = "x86_64-unknown-linux-gnu"

%class.btConvex2dShape = type { %class.btConvexShape, ptr }
%class.btConvexShape = type { %class.btCollisionShape }
%class.btCollisionShape = type { ptr, i32, ptr, i32, i32 }

; Function Attrs: mustprogress uwtable
define dso_local void @_ZNK15btConvex2dShape21calculateLocalInertiaEfR9btVector3(ptr noundef nonnull align 8 dereferenceable(40) %this, float noundef %mass, ptr noundef nonnull align 4 dereferenceable(16) %inertia) unnamed_addr #2 align 2 {
entry:
  %this.addr = alloca ptr, align 8
  %mass.addr = alloca float, align 4
  %inertia.addr = alloca ptr, align 8
  store ptr %this, ptr %this.addr, align 8
  store float %mass, ptr %mass.addr, align 4
  store ptr %inertia, ptr %inertia.addr, align 8
  %this1 = load ptr, ptr %this.addr, align 8
  %m_childConvexShape = getelementptr inbounds %class.btConvex2dShape, ptr %this1, i32 0, i32 1
  %0 = load ptr, ptr %m_childConvexShape, align 8
  %1 = load float, ptr %mass.addr, align 4
  %2 = load ptr, ptr %inertia.addr, align 8
  %vtable = load ptr, ptr %0, align 8
  %vfn = getelementptr inbounds ptr, ptr %vtable, i64 8
  %3 = load ptr, ptr %vfn, align 8
  call void %3(ptr noundef nonnull align 8 dereferenceable(32) %0, float noundef %1, ptr noundef nonnull align 4 dereferenceable(16) %2)
  ret void
}